; Function Attrs: mustprogress nofree norecurse nosync nounwind willreturn memory(argmem: readwrite) uwtable
define dso_local void @_ZN4llvm3pdb13PublicsStreamC2ESt10unique_ptrINS_3msf17MappedBlockStreamESt14default_deleteIS4_EE(ptr nocapture noundef nonnull writeonly align 8 dereferenceable(16704) %0, ptr nocapture noundef %1) unnamed_addr #0 align 2 {
  %3 = load i64, ptr %1, align 8
  store i64 %3, ptr %0, align 8
  store ptr null, ptr %1, align 8
  %4 = getelementptr inbounds i8, ptr %0, i64 16
  %5 = getelementptr inbounds i8, ptr %0, i64 56
  store i8 0, ptr %5, align 8
  tail call void @llvm.memset.p0.i64(ptr noundef nonnull align 8 dereferenceable(32) %4, i8 0, i64 32, i1 false)
  %6 = getelementptr inbounds i8, ptr %0, i64 64
  %7 = getelementptr inbounds i8, ptr %0, i64 104
  store i8 0, ptr %7, align 8
  tail call void @llvm.memset.p0.i64(ptr noundef nonnull align 8 dereferenceable(32) %6, i8 0, i64 32, i1 false)
  %8 = getelementptr inbounds i8, ptr %0, i64 112
  %9 = getelementptr inbounds i8, ptr %0, i64 152
  store i8 0, ptr %9, align 8
  tail call void @llvm.memset.p0.i64(ptr noundef nonnull align 8 dereferenceable(32) %8, i8 0, i64 32, i1 false)
  %10 = getelementptr inbounds nuw i8, ptr %0, i64 16552
  %11 = getelementptr inbounds i8, ptr %0, i64 16592
  store i8 0, ptr %11, align 8
  tail call void @llvm.memset.p0.i64(ptr noundef nonnull align 8 dereferenceable(32) %10, i8 0, i64 32, i1 false)
  %12 = getelementptr inbounds nuw i8, ptr %0, i64 16600
  %13 = getelementptr inbounds i8, ptr %0, i64 16640
  store i8 0, ptr %13, align 8
  tail call void @llvm.memset.p0.i64(ptr noundef nonnull align 8 dereferenceable(32) %12, i8 0, i64 32, i1 false)
  %14 = getelementptr inbounds nuw i8, ptr %0, i64 16648
  %15 = getelementptr inbounds i8, ptr %0, i64 16688
  store i8 0, ptr %15, align 8
  tail call void @llvm.memset.p0.i64(ptr noundef nonnull align 8 dereferenceable(32) %14, i8 0, i64 32, i1 false)
  ret void
}